; ModuleID = '15/1999.c'
source_filename = "15/1999.c"
target datalayout = "e-m:e-p270:32:32-p271:32:32-p272:64:64-i64:64-f80:128-n8:16:32:64-S128"
target triple = "x86_64-pc-linux-gnu"

@.str = private unnamed_addr constant [3 x i8] c"%d\00", align 1
@.str.1 = private unnamed_addr constant [4 x i8] c"%d\0A\00", align 1

; Function Attrs: noinline nounwind uwtable
define dso_local i32 @main() #0 {
  %1 = alloca i32, align 4
  %2 = alloca i32, align 4
  %3 = alloca i32, align 4
  %4 = alloca i32, align 4
  %5 = alloca i8*, align 8
  %6 = alloca i64, align 8
  %7 = alloca i64, align 8
  %8 = alloca i32, align 4
  %9 = alloca i32, align 4
  %10 = alloca i32, align 4
  %11 = alloca i32, align 4
  %12 = alloca i32, align 4
  %13 = alloca i32, align 4
  %14 = alloca i32, align 4
  store i32 0, i32* %1, align 4
  %15 = call i32 (i8*, ...) @__isoc99_scanf(i8* getelementptr inbounds ([3 x i8], [3 x i8]* @.str, i64 0, i64 0), i32* %2)
  %16 = load i32, i32* %2, align 4
  %17 = zext i32 %16 to i64
  %18 = load i32, i32* %2, align 4
  %19 = zext i32 %18 to i64
  %20 = call i8* @llvm.stacksave()
  store i8* %20, i8** %5, align 8
  %21 = mul nuw i64 %17, %19
  %22 = alloca i32, i64 %21, align 16
  store i64 %17, i64* %6, align 8
  store i64 %19, i64* %7, align 8
  store i32 0, i32* %3, align 4
  br label %23

23:                                               ; preds = %45, %0
  %24 = load i32, i32* %3, align 4
  %25 = load i32, i32* %2, align 4
  %26 = icmp slt i32 %24, %25
  br i1 %26, label %27, label %48

27:                                               ; preds = %23
  store i32 0, i32* %4, align 4
  br label %28

28:                                               ; preds = %41, %27
  %29 = load i32, i32* %4, align 4
  %30 = load i32, i32* %2, align 4
  %31 = icmp slt i32 %29, %30
  br i1 %31, label %32, label %44

32:                                               ; preds = %28
  %33 = load i32, i32* %3, align 4
  %34 = sext i32 %33 to i64
  %35 = mul nsw i64 %34, %19
  %36 = getelementptr inbounds i32, i32* %22, i64 %35
  %37 = load i32, i32* %4, align 4
  %38 = sext i32 %37 to i64
  %39 = getelementptr inbounds i32, i32* %36, i64 %38
  %40 = call i32 (i8*, ...) @__isoc99_scanf(i8* getelementptr inbounds ([3 x i8], [3 x i8]* @.str, i64 0, i64 0), i32* %39)
  br label %41

41:                                               ; preds = %32
  %42 = load i32, i32* %4, align 4
  %43 = add nsw i32 %42, 1
  store i32 %43, i32* %4, align 4
  br label %28

44:                                               ; preds = %28
  br label %45

45:                                               ; preds = %44
  %46 = load i32, i32* %3, align 4
  %47 = add nsw i32 %46, 1
  store i32 %47, i32* %3, align 4
  br label %23

48:                                               ; preds = %23
  store i32 0, i32* %3, align 4
  br label %49

49:                                               ; preds = %133, %48
  %50 = load i32, i32* %3, align 4
  %51 = load i32, i32* %2, align 4
  %52 = icmp slt i32 %50, %51
  br i1 %52, label %53, label %136

53:                                               ; preds = %49
  store i32 0, i32* %4, align 4
  br label %54

54:                                               ; preds = %129, %53
  %55 = load i32, i32* %4, align 4
  %56 = load i32, i32* %2, align 4
  %57 = icmp slt i32 %55, %56
  br i1 %57, label %58, label %132

58:                                               ; preds = %54
  %59 = load i32, i32* %3, align 4
  %60 = sext i32 %59 to i64
  %61 = mul nsw i64 %60, %19
  %62 = getelementptr inbounds i32, i32* %22, i64 %61
  %63 = load i32, i32* %4, align 4
  %64 = sext i32 %63 to i64
  %65 = getelementptr inbounds i32, i32* %62, i64 %64
  %66 = load i32, i32* %65, align 4
  %67 = icmp eq i32 %66, 0
  br i1 %67, label %68, label %93

68:                                               ; preds = %58
  %69 = load i32, i32* %3, align 4
  %70 = sub nsw i32 %69, 1
  %71 = sext i32 %70 to i64
  %72 = mul nsw i64 %71, %19
  %73 = getelementptr inbounds i32, i32* %22, i64 %72
  %74 = load i32, i32* %4, align 4
  %75 = sext i32 %74 to i64
  %76 = getelementptr inbounds i32, i32* %73, i64 %75
  %77 = load i32, i32* %76, align 4
  %78 = icmp ne i32 %77, 0
  br i1 %78, label %79, label %93

79:                                               ; preds = %68
  %80 = load i32, i32* %3, align 4
  %81 = sext i32 %80 to i64
  %82 = mul nsw i64 %81, %19
  %83 = getelementptr inbounds i32, i32* %22, i64 %82
  %84 = load i32, i32* %4, align 4
  %85 = sub nsw i32 %84, 1
  %86 = sext i32 %85 to i64
  %87 = getelementptr inbounds i32, i32* %83, i64 %86
  %88 = load i32, i32* %87, align 4
  %89 = icmp ne i32 %88, 0
  br i1 %89, label %90, label %93

90:                                               ; preds = %79
  %91 = load i32, i32* %3, align 4
  store i32 %91, i32* %8, align 4
  %92 = load i32, i32* %4, align 4
  store i32 %92, i32* %10, align 4
  br label %93

93:                                               ; preds = %90, %79, %68, %58
  %94 = load i32, i32* %3, align 4
  %95 = sext i32 %94 to i64
  %96 = mul nsw i64 %95, %19
  %97 = getelementptr inbounds i32, i32* %22, i64 %96
  %98 = load i32, i32* %4, align 4
  %99 = sext i32 %98 to i64
  %100 = getelementptr inbounds i32, i32* %97, i64 %99
  %101 = load i32, i32* %100, align 4
  %102 = icmp eq i32 %101, 0
  br i1 %102, label %103, label %128

103:                                              ; preds = %93
  %104 = load i32, i32* %3, align 4
  %105 = add nsw i32 %104, 1
  %106 = sext i32 %105 to i64
  %107 = mul nsw i64 %106, %19
  %108 = getelementptr inbounds i32, i32* %22, i64 %107
  %109 = load i32, i32* %4, align 4
  %110 = sext i32 %109 to i64
  %111 = getelementptr inbounds i32, i32* %108, i64 %110
  %112 = load i32, i32* %111, align 4
  %113 = icmp ne i32 %112, 0
  br i1 %113, label %114, label %128

114:                                              ; preds = %103
  %115 = load i32, i32* %3, align 4
  %116 = sext i32 %115 to i64
  %117 = mul nsw i64 %116, %19
  %118 = getelementptr inbounds i32, i32* %22, i64 %117
  %119 = load i32, i32* %4, align 4
  %120 = add nsw i32 %119, 1
  %121 = sext i32 %120 to i64
  %122 = getelementptr inbounds i32, i32* %118, i64 %121
  %123 = load i32, i32* %122, align 4
  %124 = icmp ne i32 %123, 0
  br i1 %124, label %125, label %128

125:                                              ; preds = %114
  %126 = load i32, i32* %3, align 4
  store i32 %126, i32* %9, align 4
  %127 = load i32, i32* %4, align 4
  store i32 %127, i32* %11, align 4
  br label %128

128:                                              ; preds = %125, %114, %103, %93
  br label %129

129:                                              ; preds = %128
  %130 = load i32, i32* %4, align 4
  %131 = add nsw i32 %130, 1
  store i32 %131, i32* %4, align 4
  br label %54

132:                                              ; preds = %54
  br label %133

133:                                              ; preds = %132
  %134 = load i32, i32* %3, align 4
  %135 = add nsw i32 %134, 1
  store i32 %135, i32* %3, align 4
  br label %49

136:                                              ; preds = %49
  %137 = load i32, i32* %9, align 4
  %138 = load i32, i32* %8, align 4
  %139 = sub nsw i32 %137, %138
  %140 = sub nsw i32 %139, 1
  store i32 %140, i32* %12, align 4
  %141 = load i32, i32* %11, align 4
  %142 = load i32, i32* %10, align 4
  %143 = sub nsw i32 %141, %142
  %144 = sub nsw i32 %143, 1
  store i32 %144, i32* %13, align 4
  %145 = load i32, i32* %12, align 4
  %146 = load i32, i32* %13, align 4
  %147 = mul nsw i32 %145, %146
  store i32 %147, i32* %14, align 4
  %148 = load i32, i32* %14, align 4
  %149 = call i32 (i8*, ...) @printf(i8* getelementptr inbounds ([4 x i8], [4 x i8]* @.str.1, i64 0, i64 0), i32 %148)
  store i32 0, i32* %1, align 4
  %150 = load i8*, i8** %5, align 8
  call void @llvm.stackrestore(i8* %150)
  %151 = load i32, i32* %1, align 4
  ret i32 %151
}

declare dso_local i32 @__isoc99_scanf(i8*, ...) #1

; Function Attrs: nounwind
declare i8* @llvm.stacksave() #2

declare dso_local i32 @printf(i8*, ...) #1

; Function Attrs: nounwind
declare void @llvm.stackrestore(i8*) #2


!llvm.module.flags = !{!0}
!llvm.ident = !{!1}

!0 = !{i32 1, !"wchar_size", i32 4}
!1 = !{!"clang version 10.0.0-4ubuntu1 "}
